; Function Attrs: nounwind sspstrong uwtable
define noundef i64 @rsock_sock_listen(i64 noundef %0, i64 noundef %1) #0 {
  %3 = and i64 %1, 1
  %.not.i = icmp eq i64 %3, 0
  br i1 %.not.i, label %6, label %4

4:                                                ; preds = %2
  %5 = tail call i64 @rb_fix2int(i64 noundef %1) #16
  br label %rb_num2int_inline.exit

6:                                                ; preds = %2
  %7 = tail call i64 @rb_num2int(i64 noundef %1) #16
  br label %rb_num2int_inline.exit

rb_num2int_inline.exit:                           ; preds = %4, %6
  %.0.i = phi i64 [ %5, %4 ], [ %7, %6 ]
  %8 = trunc i64 %.0.i to i32
  %9 = tail call i64 @rb_io_taint_check(i64 noundef %0) #16
  %10 = inttoptr i64 %9 to ptr
  %11 = getelementptr inbounds nuw i8, ptr %10, i64 16
  %12 = load ptr, ptr %11, align 8, !tbaa !24
  tail call void @rb_io_check_closed(ptr noundef %12) #16
  %13 = getelementptr inbounds nuw i8, ptr %12, i64 16
  %14 = load i32, ptr %13, align 8, !tbaa !27
  %15 = tail call i32 @listen(i32 noundef %14, i32 noundef %8) #16
  %16 = icmp slt i32 %15, 0
  br i1 %16, label %17, label %20

17:                                               ; preds = %rb_num2int_inline.exit
  %18 = tail call ptr @rb_errno_ptr() #16
  %19 = load i32, ptr %18, align 4, !tbaa !6
  tail call void @rb_syserr_fail(i32 noundef %19, ptr noundef nonnull @.str.5) #18
  unreachable

20:                                               ; preds = %rb_num2int_inline.exit
  ret i64 1
}